#include <math.h>
#include <stdio.h>
#include <stdlib.h>
#include <string.h>

int main()
{
	char a[1001],b[1001];
	int c[100]={0};
	int i,n=0,l1,l2;
	scanf("%s%s",a,b);
	l1=strlen(a);
	l2=strlen(b);
	if(l1==l2)
	{
		for(i=0;i<l1;i++)
			c[a[i]-'a']++;
		for(i=0;i<l2;i++)
			c[b[i]-'a']--;
		for(i=0;i<100;i++)
		{
			if(c[i]!=0)
			{
				printf("NO");
				n=1;
				break;
			}
		}
	    if(n==0)printf("YES");
	}
	else printf("NO");
	return 0;
}